; Function Attrs: mustprogress uwtable
define void @_ZN2cv12findContoursERKNS_11_InputArrayERKNS_12_OutputArrayEiiNS_6Point_IiEE(ptr noundef nonnull align 8 dereferenceable(24) %0, ptr noundef nonnull align 8 dereferenceable(24) %1, i32 noundef %2, i32 noundef %3, i64 %4) local_unnamed_addr #4 personality ptr @__gxx_personality_v0 {
  %6 = alloca %"class.cv::utils::trace::details::Region", align 8
  call void @llvm.lifetime.start.p0(i64 16, ptr nonnull %6) #22
  call void @_ZN2cv5utils5trace7details6RegionC1ERKNS3_21LocationStaticStorageE(ptr noundef nonnull align 8 dereferenceable(12) %6, ptr noundef nonnull align 8 dereferenceable(32) @_ZZN2cv12findContoursERKNS_11_InputArrayERKNS_12_OutputArrayEiiNS_6Point_IiEEE25__cv_trace_location_fn691)
  %7 = invoke noundef nonnull align 8 dereferenceable(24) ptr @_ZN2cv7noArrayEv()
          to label %8 unwind label %16

8:                                                ; preds = %5
  invoke void @_ZN2cv12findContoursERKNS_11_InputArrayERKNS_12_OutputArrayES5_iiNS_6Point_IiEE(ptr noundef nonnull align 8 dereferenceable(24) %0, ptr noundef nonnull align 8 dereferenceable(24) %1, ptr noundef nonnull align 8 dereferenceable(24) %7, i32 noundef %2, i32 noundef %3, i64 %4)
          to label %9 unwind label %16

9:                                                ; preds = %8
  %10 = getelementptr inbounds nuw i8, ptr %6, i64 8
  %11 = load i32, ptr %10, align 8, !tbaa !171
  %.not.i = icmp eq i32 %11, 0
  br i1 %.not.i, label %_ZN2cv5utils5trace7details6RegionD2Ev.exit, label %12

12:                                               ; preds = %9
  invoke void @_ZN2cv5utils5trace7details6Region7destroyEv(ptr noundef nonnull align 8 dereferenceable(12) %6)
          to label %_ZN2cv5utils5trace7details6RegionD2Ev.exit unwind label %13

13:                                               ; preds = %12
  %14 = landingpad { ptr, i32 }
          catch ptr null
  %15 = extractvalue { ptr, i32 } %14, 0
  call void @__clang_call_terminate(ptr %15) #25
  unreachable

_ZN2cv5utils5trace7details6RegionD2Ev.exit:       ; preds = %9, %12
  call void @llvm.lifetime.end.p0(i64 16, ptr nonnull %6) #22
  ret void

16:                                               ; preds = %8, %5
  %17 = landingpad { ptr, i32 }
          cleanup
  call void @_ZN2cv5utils5trace7details6RegionD2Ev(ptr noundef nonnull align 8 dereferenceable(12) %6) #22
  call void @llvm.lifetime.end.p0(i64 16, ptr nonnull %6) #22
  resume { ptr, i32 } %17
}